; Function Attrs: nounwind uwtable
define internal range(i32 -1, 1) i32 @H5F__cache_drvrinfo_get_final_load_size(ptr noundef %0, i64 noundef %1, ptr noundef readonly captures(none) %2, ptr noundef writeonly captures(none) %3) #1 {
  %5 = alloca ptr, align 8
  %6 = alloca %struct.H5O_drvinfo_t, align 8
  call void @llvm.lifetime.start.p0(i64 8, ptr nonnull %5) #6
  store ptr %0, ptr %5, align 8, !tbaa !12
  call void @llvm.lifetime.start.p0(i64 280, ptr nonnull %6) #6
  %7 = load i8, ptr @H5F_init_g, align 1, !tbaa !3, !range !7, !noundef !8
  %8 = trunc nuw i8 %7 to i1
  %9 = load i8, ptr @H5_libterm_g, align 1, !range !7
  %10 = trunc nuw i8 %9 to i1
  %11 = xor i1 %10, true
  %12 = select i1 %8, i1 true, i1 %11
  br i1 %12, label %13, label %24, !prof !9

13:                                               ; preds = %4
  %14 = call fastcc i32 @H5F__drvrinfo_prefix_decode(ptr noundef %6, ptr noundef null, ptr noundef %5, i64 noundef %1, ptr noundef %2, i1 noundef zeroext true)
  %15 = icmp slt i32 %14, 0
  br i1 %15, label %16, label %20

16:                                               ; preds = %13
  %17 = load i64, ptr @H5E_FILE_g, align 8, !tbaa !10
  %18 = load i64, ptr @H5E_CANTDECODE_g, align 8, !tbaa !10
  %19 = tail call i32 (ptr, ptr, i32, i64, i64, ptr, ...) @H5E_printf_stack(ptr noundef nonnull @.str.2, ptr noundef nonnull @__func__.H5F__cache_drvrinfo_get_final_load_size, i32 noundef 851, i64 noundef %17, i64 noundef %18, ptr noundef nonnull @.str.31) #6
  br label %24

20:                                               ; preds = %13
  %21 = getelementptr inbounds nuw i8, ptr %6, i64 264
  %22 = load i64, ptr %21, align 8, !tbaa !75
  %23 = add i64 %22, 16
  store i64 %23, ptr %3, align 8, !tbaa !10
  br label %24

24:                                               ; preds = %16, %20, %4
  %.0 = phi i32 [ -1, %16 ], [ 0, %20 ], [ 0, %4 ]
  call void @llvm.lifetime.end.p0(i64 280, ptr nonnull %6) #6
  call void @llvm.lifetime.end.p0(i64 8, ptr nonnull %5) #6
  ret i32 %.0
}